target datalayout = "e-m:e-p270:32:32-p271:32:32-p272:64:64-i64:64-i128:128-f80:128-n8:16:32:64-S128"
target triple = "x86_64-pc-linux-gnu"

%struct.Aig_ManCut_t_ = type { ptr, ptr, i32, i32, i32, i32, i32, i32, ptr, [4 x ptr] }
%struct.Aig_Obj_t_ = type { %union.anon, ptr, ptr, i64, i32, i32, %union.anon.0 }
%union.anon = type { ptr }
%union.anon.0 = type { ptr }
%struct.Aig_Cut_t_ = type { ptr, i32, i32, i32, i16, i8, i8, [0 x i32] }

; Function Attrs: inlinehint nounwind uwtable
define internal ptr @Aig_CutTruth(ptr noundef %0) #5 {
  %2 = alloca ptr, align 8
  store ptr %0, ptr %2, align 8, !tbaa !37
  %3 = load ptr, ptr %2, align 8, !tbaa !37
  %4 = getelementptr inbounds nuw %struct.Aig_Cut_t_, ptr %3, i32 0, i32 7
  %5 = getelementptr inbounds [0 x i32], ptr %4, i64 0, i64 0
  %6 = load ptr, ptr %2, align 8, !tbaa !37
  %7 = getelementptr inbounds nuw %struct.Aig_Cut_t_, ptr %6, i32 0, i32 5
  %8 = load i8, ptr %7, align 2, !tbaa !56
  %9 = sext i8 %8 to i32
  %10 = sext i32 %9 to i64
  %11 = getelementptr inbounds i32, ptr %5, i64 %10
  ret ptr %11
}

; Function Attrs: inlinehint nounwind uwtable
define internal i32 @Aig_ObjCutSign(i32 noundef %0) #5 {
  %2 = alloca i32, align 4
  store i32 %0, ptr %2, align 4, !tbaa !8
  %3 = load i32, ptr %2, align 4, !tbaa !8
  %4 = and i32 %3, 31
  %5 = shl i32 1, %4
  ret i32 %5
}

; Function Attrs: inlinehint nounwind uwtable
define internal ptr @Aig_CutNext(ptr noundef %0) #5 {
  %2 = alloca ptr, align 8
  store ptr %0, ptr %2, align 8, !tbaa !37
  %3 = load ptr, ptr %2, align 8, !tbaa !37
  %4 = load ptr, ptr %2, align 8, !tbaa !37
  %5 = getelementptr inbounds nuw %struct.Aig_Cut_t_, ptr %4, i32 0, i32 4
  %6 = load i16, ptr %5, align 4, !tbaa !47
  %7 = sext i16 %6 to i32
  %8 = sext i32 %7 to i64
  %9 = getelementptr inbounds i8, ptr %3, i64 %8
  ret ptr %9
}

; Function Attrs: inlinehint nounwind uwtable
define internal ptr @Aig_ObjCuts(ptr noundef %0, ptr noundef %1) #5 {
  %3 = alloca ptr, align 8
  %4 = alloca ptr, align 8
  store ptr %0, ptr %3, align 8, !tbaa !10
  store ptr %1, ptr %4, align 8, !tbaa !44
  %5 = load ptr, ptr %3, align 8, !tbaa !10
  %6 = getelementptr inbounds nuw %struct.Aig_ManCut_t_, ptr %5, i32 0, i32 1
  %7 = load ptr, ptr %6, align 8, !tbaa !20
  %8 = load ptr, ptr %4, align 8, !tbaa !44
  %9 = getelementptr inbounds nuw %struct.Aig_Obj_t_, ptr %8, i32 0, i32 5
  %10 = load i32, ptr %9, align 4, !tbaa !45
  %11 = sext i32 %10 to i64
  %12 = getelementptr inbounds ptr, ptr %7, i64 %11
  %13 = load ptr, ptr %12, align 8, !tbaa !37
  ret ptr %13
}

; Function Attrs: inlinehint nounwind uwtable
define internal void @Aig_ObjSetCuts(ptr noundef %0, ptr noundef %1, ptr noundef %2) #5 {
  %4 = alloca ptr, align 8
  %5 = alloca ptr, align 8
  %6 = alloca ptr, align 8
  store ptr %0, ptr %4, align 8, !tbaa !10
  store ptr %1, ptr %5, align 8, !tbaa !44
  store ptr %2, ptr %6, align 8, !tbaa !37
  %7 = load ptr, ptr %6, align 8, !tbaa !37
  %8 = load ptr, ptr %4, align 8, !tbaa !10
  %9 = getelementptr inbounds nuw %struct.Aig_ManCut_t_, ptr %8, i32 0, i32 1
  %10 = load ptr, ptr %9, align 8, !tbaa !20
  %11 = load ptr, ptr %5, align 8, !tbaa !44
  %12 = getelementptr inbounds nuw %struct.Aig_Obj_t_, ptr %11, i32 0, i32 5
  %13 = load i32, ptr %12, align 4, !tbaa !45
  %14 = sext i32 %13 to i64
  %15 = getelementptr inbounds ptr, ptr %10, i64 %14
  store ptr %7, ptr %15, align 8, !tbaa !37
  ret void
}

; Function Attrs: nounwind uwtable
define ptr @Aig_ObjPrepareCuts(ptr noundef %0, ptr noundef %1, i32 noundef %2) #0 {
  %4 = alloca ptr, align 8
  %5 = alloca ptr, align 8
  %6 = alloca i32, align 4
  %7 = alloca ptr, align 8
  %8 = alloca ptr, align 8
  %9 = alloca i32, align 4
  store ptr %0, ptr %4, align 8, !tbaa !10
  store ptr %1, ptr %5, align 8, !tbaa !44
  store i32 %2, ptr %6, align 4, !tbaa !8
  call void @llvm.lifetime.start.p0(i64 8, ptr %7) #10
  call void @llvm.lifetime.start.p0(i64 8, ptr %8) #10
  call void @llvm.lifetime.start.p0(i64 4, ptr %9) #10
  %10 = load ptr, ptr %4, align 8, !tbaa !10
  %11 = getelementptr inbounds nuw %struct.Aig_ManCut_t_, ptr %10, i32 0, i32 8
  %12 = load ptr, ptr %11, align 8, !tbaa !23
  %13 = call ptr @Aig_MmFixedEntryFetch(ptr noundef %12)
  store ptr %13, ptr %7, align 8, !tbaa !37
  %14 = load ptr, ptr %4, align 8, !tbaa !10
  %15 = load ptr, ptr %5, align 8, !tbaa !44
  %16 = load ptr, ptr %7, align 8, !tbaa !37
  call void @Aig_ObjSetCuts(ptr noundef %14, ptr noundef %15, ptr noundef %16)
  store i32 0, ptr %9, align 4, !tbaa !8
  %17 = load ptr, ptr %4, align 8, !tbaa !10
  %18 = load ptr, ptr %5, align 8, !tbaa !44
  %19 = call ptr @Aig_ObjCuts(ptr noundef %17, ptr noundef %18)
  store ptr %19, ptr %8, align 8, !tbaa !37
  br label %20

20:                                               ; preds = %46, %3
  %21 = load i32, ptr %9, align 4, !tbaa !8
  %22 = load ptr, ptr %4, align 8, !tbaa !10
  %23 = getelementptr inbounds nuw %struct.Aig_ManCut_t_, ptr %22, i32 0, i32 2
  %24 = load i32, ptr %23, align 8, !tbaa !12
  %25 = icmp slt i32 %21, %24
  br i1 %25, label %26, label %51

26:                                               ; preds = %20
  %27 = load ptr, ptr %8, align 8, !tbaa !37
  %28 = getelementptr inbounds nuw %struct.Aig_Cut_t_, ptr %27, i32 0, i32 6
  store i8 0, ptr %28, align 1, !tbaa !39
  %29 = load ptr, ptr %5, align 8, !tbaa !44
  %30 = getelementptr inbounds nuw %struct.Aig_Obj_t_, ptr %29, i32 0, i32 5
  %31 = load i32, ptr %30, align 4, !tbaa !45
  %32 = load ptr, ptr %8, align 8, !tbaa !37
  %33 = getelementptr inbounds nuw %struct.Aig_Cut_t_, ptr %32, i32 0, i32 3
  store i32 %31, ptr %33, align 8, !tbaa !71
  %34 = load ptr, ptr %4, align 8, !tbaa !10
  %35 = getelementptr inbounds nuw %struct.Aig_ManCut_t_, ptr %34, i32 0, i32 6
  %36 = load i32, ptr %35, align 8, !tbaa !22
  %37 = trunc i32 %36 to i16
  %38 = load ptr, ptr %8, align 8, !tbaa !37
  %39 = getelementptr inbounds nuw %struct.Aig_Cut_t_, ptr %38, i32 0, i32 4
  store i16 %37, ptr %39, align 4, !tbaa !47
  %40 = load ptr, ptr %4, align 8, !tbaa !10
  %41 = getelementptr inbounds nuw %struct.Aig_ManCut_t_, ptr %40, i32 0, i32 3
  %42 = load i32, ptr %41, align 4, !tbaa !16
  %43 = trunc i32 %42 to i8
  %44 = load ptr, ptr %8, align 8, !tbaa !37
  %45 = getelementptr inbounds nuw %struct.Aig_Cut_t_, ptr %44, i32 0, i32 5
  store i8 %43, ptr %45, align 2, !tbaa !56
  br label %46

46:                                               ; preds = %26
  %47 = load i32, ptr %9, align 4, !tbaa !8
  %48 = add nsw i32 %47, 1
  store i32 %48, ptr %9, align 4, !tbaa !8
  %49 = load ptr, ptr %8, align 8, !tbaa !37
  %50 = call ptr @Aig_CutNext(ptr noundef %49)
  store ptr %50, ptr %8, align 8, !tbaa !37
  br label %20, !llvm.loop !72

51:                                               ; preds = %20
  %52 = load i32, ptr %6, align 4, !tbaa !8
  %53 = icmp ne i32 %52, 0
  br i1 %53, label %54, label %90

54:                                               ; preds = %51
  %55 = load ptr, ptr %7, align 8, !tbaa !37
  store ptr %55, ptr %8, align 8, !tbaa !37
  %56 = load ptr, ptr %8, align 8, !tbaa !37
  %57 = getelementptr inbounds nuw %struct.Aig_Cut_t_, ptr %56, i32 0, i32 1
  store i32 0, ptr %57, align 8, !tbaa !73
  %58 = load ptr, ptr %5, align 8, !tbaa !44
  %59 = getelementptr inbounds nuw %struct.Aig_Obj_t_, ptr %58, i32 0, i32 5
  %60 = load i32, ptr %59, align 4, !tbaa !45
  %61 = load ptr, ptr %8, align 8, !tbaa !37
  %62 = getelementptr inbounds nuw %struct.Aig_Cut_t_, ptr %61, i32 0, i32 3
  store i32 %60, ptr %62, align 8, !tbaa !71
  %63 = load ptr, ptr %8, align 8, !tbaa !37
  %64 = getelementptr inbounds nuw %struct.Aig_Cut_t_, ptr %63, i32 0, i32 6
  store i8 1, ptr %64, align 1, !tbaa !39
  %65 = load ptr, ptr %5, align 8, !tbaa !44
  %66 = getelementptr inbounds nuw %struct.Aig_Obj_t_, ptr %65, i32 0, i32 5
  %67 = load i32, ptr %66, align 4, !tbaa !45
  %68 = load ptr, ptr %8, align 8, !tbaa !37
  %69 = getelementptr inbounds nuw %struct.Aig_Cut_t_, ptr %68, i32 0, i32 7
  %70 = getelementptr inbounds [0 x i32], ptr %69, i64 0, i64 0
  store i32 %67, ptr %70, align 8, !tbaa !8
  %71 = load ptr, ptr %5, align 8, !tbaa !44
  %72 = getelementptr inbounds nuw %struct.Aig_Obj_t_, ptr %71, i32 0, i32 5
  %73 = load i32, ptr %72, align 4, !tbaa !45
  %74 = call i32 @Aig_ObjCutSign(i32 noundef %73)
  %75 = load ptr, ptr %8, align 8, !tbaa !37
  %76 = getelementptr inbounds nuw %struct.Aig_Cut_t_, ptr %75, i32 0, i32 2
  store i32 %74, ptr %76, align 4, !tbaa !61
  %77 = load ptr, ptr %4, align 8, !tbaa !10
  %78 = getelementptr inbounds nuw %struct.Aig_ManCut_t_, ptr %77, i32 0, i32 4
  %79 = load i32, ptr %78, align 8, !tbaa !17
  %80 = icmp ne i32 %79, 0
  br i1 %80, label %81, label %89

81:                                               ; preds = %54
  %82 = load ptr, ptr %8, align 8, !tbaa !37
  %83 = call ptr @Aig_CutTruth(ptr noundef %82)
  %84 = load ptr, ptr %4, align 8, !tbaa !10
  %85 = getelementptr inbounds nuw %struct.Aig_ManCut_t_, ptr %84, i32 0, i32 7
  %86 = load i32, ptr %85, align 4, !tbaa !21
  %87 = sext i32 %86 to i64
  %88 = mul i64 4, %87
  call void @llvm.memset.p0.i64(ptr align 4 %83, i8 -86, i64 %88, i1 false)
  br label %89

89:                                               ; preds = %81, %54
  br label %90

90:                                               ; preds = %89, %51
  %91 = load ptr, ptr %7, align 8, !tbaa !37
  call void @llvm.lifetime.end.p0(i64 4, ptr %9) #10
  call void @llvm.lifetime.end.p0(i64 8, ptr %8) #10
  call void @llvm.lifetime.end.p0(i64 8, ptr %7) #10
  ret ptr %91
}