; Function Attrs: nounwind uwtable
define ptr @Aig_ObjPrepareCuts(ptr noundef readonly captures(none) %0, ptr noundef readonly captures(none) %1, i32 noundef %2) local_unnamed_addr #0 {
  %4 = getelementptr inbounds nuw i8, ptr %0, i64 40
  %5 = load ptr, ptr %4, align 8, !tbaa !33
  %6 = tail call ptr @Aig_MmFixedEntryFetch(ptr noundef %5) #20
  %7 = getelementptr i8, ptr %0, i64 8
  %.val33 = load ptr, ptr %7, align 8, !tbaa !30
  %8 = getelementptr i8, ptr %1, i64 36
  %.val34 = load i32, ptr %8, align 4, !tbaa !42
  %9 = sext i32 %.val34 to i64
  %10 = getelementptr inbounds ptr, ptr %.val33, i64 %9
  store ptr %6, ptr %10, align 8, !tbaa !43
  %11 = getelementptr inbounds nuw i8, ptr %0, i64 16
  %12 = load i32, ptr %11, align 8, !tbaa !3
  %13 = icmp sgt i32 %12, 0
  br i1 %13, label %.lr.ph, label %._crit_edge

.lr.ph:                                           ; preds = %3
  %14 = getelementptr inbounds nuw i8, ptr %0, i64 32
  %15 = load i32, ptr %14, align 8, !tbaa !32
  %16 = trunc i32 %15 to i16
  %17 = getelementptr inbounds nuw i8, ptr %0, i64 20
  %18 = load i32, ptr %17, align 4, !tbaa !12
  %19 = trunc i32 %18 to i8
  %20 = sext i16 %16 to i64
  br label %21

21:                                               ; preds = %.lr.ph, %21
  %.036 = phi i32 [ 0, %.lr.ph ], [ %26, %21 ]
  %.03035 = phi ptr [ %6, %.lr.ph ], [ %27, %21 ]
  %22 = getelementptr inbounds nuw i8, ptr %.03035, i64 23
  store i8 0, ptr %22, align 1, !tbaa !35
  %23 = getelementptr inbounds nuw i8, ptr %.03035, i64 16
  store i32 %.val34, ptr %23, align 8, !tbaa !66
  %24 = getelementptr inbounds nuw i8, ptr %.03035, i64 20
  store i16 %16, ptr %24, align 4, !tbaa !44
  %25 = getelementptr inbounds nuw i8, ptr %.03035, i64 22
  store i8 %19, ptr %25, align 2, !tbaa !50
  %26 = add nuw nsw i32 %.036, 1
  %27 = getelementptr inbounds i8, ptr %.03035, i64 %20
  %exitcond.not = icmp eq i32 %26, %12
  br i1 %exitcond.not, label %._crit_edge, label %21, !llvm.loop !67

._crit_edge:                                      ; preds = %21, %3
  %.not = icmp eq i32 %2, 0
  br i1 %.not, label %48, label %28

28:                                               ; preds = %._crit_edge
  %29 = getelementptr inbounds nuw i8, ptr %6, i64 8
  store i32 0, ptr %29, align 8, !tbaa !68
  %30 = getelementptr inbounds nuw i8, ptr %6, i64 16
  store i32 %.val34, ptr %30, align 8, !tbaa !66
  %31 = getelementptr inbounds nuw i8, ptr %6, i64 23
  store i8 1, ptr %31, align 1, !tbaa !35
  %32 = getelementptr inbounds nuw i8, ptr %6, i64 24
  store i32 %.val34, ptr %32, align 8, !tbaa !39
  %33 = load i32, ptr %8, align 4, !tbaa !42
  %34 = and i32 %33, 31
  %35 = shl nuw i32 1, %34
  %36 = getelementptr inbounds nuw i8, ptr %6, i64 12
  store i32 %35, ptr %36, align 4, !tbaa !56
  %37 = getelementptr inbounds nuw i8, ptr %0, i64 24
  %38 = load i32, ptr %37, align 8, !tbaa !13
  %.not31 = icmp eq i32 %38, 0
  br i1 %.not31, label %48, label %39

39:                                               ; preds = %28
  %40 = getelementptr inbounds nuw i8, ptr %6, i64 22
  %41 = load i8, ptr %40, align 2, !tbaa !50
  %42 = sext i8 %41 to i64
  %43 = getelementptr inbounds i32, ptr %32, i64 %42
  %44 = getelementptr inbounds nuw i8, ptr %0, i64 36
  %45 = load i32, ptr %44, align 4, !tbaa !31
  %46 = sext i32 %45 to i64
  %47 = shl nsw i64 %46, 2
  tail call void @llvm.memset.p0.i64(ptr nonnull align 4 %43, i8 -86, i64 %47, i1 false)
  br label %48

48:                                               ; preds = %28, %39, %._crit_edge
  ret ptr %6
}